	.syntax unified
	.cpu cortex-m4
	.eabi_attribute 27, 3
	.eabi_attribute 28, 1
	.fpu fpv4-sp-d16
	.eabi_attribute 20, 1
	.eabi_attribute 21, 1
	.eabi_attribute 23, 3
	.eabi_attribute 24, 1
	.eabi_attribute 25, 1
	.eabi_attribute 26, 1
	.eabi_attribute 30, 2
	.eabi_attribute 34, 1
	.eabi_attribute 18, 4
	.thumb
	.file	"usart.c"
	.text
.Ltext0:
	.cfi_sections	.debug_frame
	.align	2
	.global	initUSART2
	.thumb
	.thumb_func
	.type	initUSART2, %function
initUSART2:
.LFB110:
	.file 1 "usart.c"
	.loc 1 3 0
	.cfi_startproc
	@ args = 0, pretend = 0, frame = 0
	@ frame_needed = 0, uses_anonymous_args = 0
	@ link register save eliminated.
.LVL0:
	.loc 1 7 0
	ldr	r2, .L3
	.loc 1 9 0
	ldr	r3, .L3+4
	.loc 1 7 0
	ldr	r1, [r2, #48]
	orr	r1, r1, #1
	.loc 1 3 0
	push	{r4}
	.cfi_def_cfa_offset 4
	.cfi_offset 4, -4
	.loc 1 7 0
	str	r1, [r2, #48]
	.loc 1 8 0
	ldr	r1, [r2, #64]
	.loc 1 17 0
	ldr	r4, .L3+8
	.loc 1 8 0
	orr	r1, r1, #131072
	str	r1, [r2, #64]
	.loc 1 9 0
	ldr	r2, [r3]
	orr	r2, r2, #160
	str	r2, [r3]
	.loc 1 10 0
	ldr	r2, [r3, #32]
	orr	r2, r2, #30464
	str	r2, [r3, #32]
	.loc 1 12 0
	ldr	r2, [r3, #8]
	orr	r2, r2, #32
	str	r2, [r3, #8]
	.loc 1 14 0
	ldr	r2, [r3, #8]
	.loc 1 17 0
	uxth	r0, r0
.LVL1:
	.loc 1 14 0
	orr	r2, r2, #128
	.loc 1 19 0
	movw	r1, #8204
	.loc 1 14 0
	str	r2, [r3, #8]
	.loc 1 17 0
	strh	r0, [r4, #8]	@ movhi
	.loc 1 19 0
	strh	r1, [r4, #12]	@ movhi
	.loc 1 21 0
	ldr	r4, [sp], #4
	.cfi_restore 4
	.cfi_def_cfa_offset 0
	bx	lr
.L4:
	.align	2
.L3:
	.word	1073887232
	.word	1073872896
	.word	1073759232
	.cfi_endproc
.LFE110:
	.size	initUSART2, .-initUSART2
	.align	2
	.global	putcharUSART2
	.thumb
	.thumb_func
	.type	putcharUSART2, %function
putcharUSART2:
.LFB111:
	.loc 1 23 0
	.cfi_startproc
	@ args = 0, pretend = 0, frame = 0
	@ frame_needed = 0, uses_anonymous_args = 0
	@ link register save eliminated.
.LVL2:
	.loc 1 24 0
	ldr	r1, .L10
.L6:
	.loc 1 24 0 is_stmt 0 discriminator 1
	ldrh	r3, [r1]
	ldr	r2, .L10
	lsls	r3, r3, #25
	bpl	.L6
	.loc 1 27 0 is_stmt 1
	uxth	r0, r0
.LVL3:
	strh	r0, [r2, #4]	@ movhi
	bx	lr
.L11:
	.align	2
.L10:
	.word	1073759232
	.cfi_endproc
.LFE111:
	.size	putcharUSART2, .-putcharUSART2
	.align	2
	.global	sprintUSART2
	.thumb
	.thumb_func
	.type	sprintUSART2, %function
sprintUSART2:
.LFB113:
	.loc 1 168 0
	.cfi_startproc
	@ args = 0, pretend = 0, frame = 0
	@ frame_needed = 0, uses_anonymous_args = 0
	@ link register save eliminated.
.LVL4:
.LBB18:
.LBB19:
	.loc 1 24 0
	ldr	r2, .L25
.LBE19:
.LBE18:
	.loc 1 168 0
	push	{r4, r5, r6}
	.cfi_def_cfa_offset 12
	.cfi_offset 4, -12
	.cfi_offset 5, -8
	.cfi_offset 6, -4
	subs	r4, r0, #1
	addw	r5, r0, #1023
.LBB22:
.LBB23:
	.loc 1 27 0
	movs	r6, #13
.LBE23:
.LBE22:
.LBB25:
.LBB20:
	.loc 1 24 0
	mov	r0, r2
.LVL5:
.L13:
.LBE20:
.LBE25:
	.loc 1 171 0
	ldrb	r1, [r4, #1]!	@ zero_extendqisi2
.LVL6:
	cbz	r1, .L12
.L21:
.LBB26:
.LBB21:
	.loc 1 24 0
	ldrh	r3, [r2]
	lsls	r3, r3, #25
	bpl	.L21
	.loc 1 27 0
	uxth	r1, r1
	strh	r1, [r0, #4]	@ movhi
.LBE21:
.LBE26:
	.loc 1 173 0
	ldrb	r3, [r4]	@ zero_extendqisi2
	cmp	r3, #10
	beq	.L16
.L15:
.LVL7:
	.loc 1 177 0
	cmp	r4, r5
	bne	.L13
.LVL8:
.L12:
	.loc 1 180 0
	pop	{r4, r5, r6}
	.cfi_remember_state
	.cfi_restore 6
	.cfi_restore 5
	.cfi_restore 4
	.cfi_def_cfa_offset 0
.LVL9:
	bx	lr
.L16:
	.cfi_restore_state
.LBB27:
.LBB24:
	.loc 1 24 0
	ldrh	r3, [r2]
	lsls	r3, r3, #25
	bpl	.L16
	.loc 1 27 0
	strh	r6, [r0, #4]	@ movhi
	b	.L15
.L26:
	.align	2
.L25:
	.word	1073759232
.LBE24:
.LBE27:
	.cfi_endproc
.LFE113:
	.size	sprintUSART2, .-sprintUSART2
	.align	2
	.global	printUSARTMOJ
	.thumb
	.thumb_func
	.type	printUSARTMOJ, %function
printUSARTMOJ:
.LFB112:
	.loc 1 30 0
	.cfi_startproc
	@ args = 4, pretend = 16, frame = 48
	@ frame_needed = 0, uses_anonymous_args = 1
.LVL10:
	push	{r0, r1, r2, r3}
	.cfi_def_cfa_offset 16
	.cfi_offset 0, -16
	.cfi_offset 1, -12
	.cfi_offset 2, -8
	.cfi_offset 3, -4
	push	{r4, r5, r6, r7, r8, lr}
	.cfi_def_cfa_offset 40
	.cfi_offset 4, -40
	.cfi_offset 5, -36
	.cfi_offset 6, -32
	.cfi_offset 7, -28
	.cfi_offset 8, -24
	.cfi_offset 14, -20
	sub	sp, sp, #48
	.cfi_def_cfa_offset 88
	.loc 1 30 0
	add	r3, sp, #72
	ldr	r6, [r3], #4
	.loc 1 42 0
	str	r3, [sp, #4]
.LVL11:
	.loc 1 44 0
	ldrb	r2, [r6]	@ zero_extendqisi2
	cbz	r2, .L27
.LBB28:
.LBB29:
	.loc 1 24 0
	ldr	r4, .L89
.LBE29:
.LBE28:
	.loc 1 44 0
	movs	r3, #0
.LBB32:
.LBB30:
	.loc 1 24 0
	mov	r7, r4
.LBE30:
.LBE32:
	.loc 1 44 0
	mov	r5, r3
	mov	r1, r6
.LBB33:
.LBB34:
	.loc 1 27 0
	mov	r8, #13
.LVL12:
.L58:
.LBE34:
.LBE33:
	.loc 1 45 0
	cmp	r2, #37
	beq	.L78
.L70:
.LBB36:
.LBB31:
	.loc 1 24 0
	ldrh	r3, [r4]
	lsls	r0, r3, #25
	bpl	.L70
	.loc 1 27 0
	uxth	r2, r2
	strh	r2, [r7, #4]	@ movhi
.LBE31:
.LBE36:
	.loc 1 158 0
	ldrb	r3, [r1]	@ zero_extendqisi2
	cmp	r3, #10
	beq	.L57
.L30:
	.loc 1 161 0
	adds	r5, r5, #1
.LVL13:
	uxth	r5, r5
.LVL14:
	.loc 1 44 0
	mov	r3, r5
	ldrb	r2, [r6, r5]	@ zero_extendqisi2
	adds	r1, r6, r5
	cmp	r2, #0
	bne	.L58
.LVL15:
.L27:
	.loc 1 166 0
	add	sp, sp, #48
	.cfi_remember_state
	.cfi_def_cfa_offset 40
.LVL16:
	@ sp needed
	pop	{r4, r5, r6, r7, r8, lr}
	.cfi_restore 14
	.cfi_restore 8
	.cfi_restore 7
	.cfi_restore 6
	.cfi_restore 5
	.cfi_restore 4
	.cfi_def_cfa_offset 16
	add	sp, sp, #16
	.cfi_restore 3
	.cfi_restore 2
	.cfi_restore 1
	.cfi_restore 0
	.cfi_def_cfa_offset 0
	bx	lr
.LVL17:
.L57:
	.cfi_restore_state
.LBB37:
.LBB35:
	.loc 1 24 0
	ldrh	r3, [r4]
	lsls	r3, r3, #25
	bpl	.L57
	.loc 1 27 0
	strh	r8, [r7, #4]	@ movhi
	b	.L30
.L78:
.LBE35:
.LBE37:
	.loc 1 46 0
	add	r3, r3, r6
	ldrb	r2, [r3, #1]	@ zero_extendqisi2
	cmp	r2, #0
	beq	.L30
	.loc 1 47 0
	subs	r2, r2, #98
	cmp	r2, #22
	bhi	.L31
	tbb	[pc, r2]
.L33:
	.byte	(.L32-.L33)/2
	.byte	(.L34-.L33)/2
	.byte	(.L35-.L33)/2
	.byte	(.L31-.L33)/2
	.byte	(.L36-.L33)/2
	.byte	(.L31-.L33)/2
	.byte	(.L31-.L33)/2
	.byte	(.L31-.L33)/2
	.byte	(.L31-.L33)/2
	.byte	(.L31-.L33)/2
	.byte	(.L31-.L33)/2
	.byte	(.L31-.L33)/2
	.byte	(.L31-.L33)/2
	.byte	(.L31-.L33)/2
	.byte	(.L31-.L33)/2
	.byte	(.L31-.L33)/2
	.byte	(.L31-.L33)/2
	.byte	(.L37-.L33)/2
	.byte	(.L31-.L33)/2
	.byte	(.L31-.L33)/2
	.byte	(.L31-.L33)/2
	.byte	(.L31-.L33)/2
	.byte	(.L38-.L33)/2
	.p2align 1
.L38:
	.loc 1 123 0
	ldrb	r3, [r3, #2]	@ zero_extendqisi2
	cmp	r3, #98
	beq	.L79
	.loc 1 126 0
	cmp	r3, #104
	beq	.L80
	.loc 1 129 0
	cmp	r3, #119
	.loc 1 130 0
	ldr	r3, [sp, #4]
	.loc 1 129 0
	beq	.L81
	.loc 1 133 0
	adds	r2, r3, #4
	.loc 1 135 0
	subs	r5, r5, #1
.LVL18:
	.loc 1 133 0
	ldr	r3, [r3]
	str	r2, [sp, #4]
	.loc 1 135 0
	uxth	r5, r5
	.loc 1 133 0
	str	r3, [sp]
.LVL19:
	.loc 1 134 0
	mov	r0, #2048
	b	.L54
.LVL20:
.L37:
	.loc 1 95 0
	ldr	r3, [sp, #4]
	adds	r2, r3, #4
	.loc 1 96 0
	ldr	r0, [r3]
	.loc 1 95 0
	str	r2, [sp, #4]
.LVL21:
	.loc 1 96 0
	bl	sprintUSART2
.LVL22:
.L61:
	.loc 1 154 0
	adds	r5, r5, #1
.LVL23:
	uxth	r5, r5
.LVL24:
	b	.L30
.L36:
.LBB38:
	.loc 1 101 0
	ldr	r3, [sp, #4]
	adds	r3, r3, #7
	bic	r3, r3, #7
	ldrd	r0, [r3]
.LVL25:
	adds	r3, r3, #8
	.loc 1 104 0
	lsrs	r2, r0, #29
.LVL26:
	.loc 1 106 0
	bic	lr, r1, #-134217728
	.loc 1 109 0
	cmp	r0, #0
	.loc 1 101 0
	str	r3, [sp, #4]
	.loc 1 108 0
	orr	r3, r2, lr, lsl #3
	.loc 1 109 0
	sbcs	r2, r1, #0
.LVL27:
	.loc 1 110 0
	it	lt
	orrlt	r3, r3, #-2147483648
	.loc 1 112 0
	movs	r0, #0
.LVL28:
	and	r1, r1, #1073741824
	.loc 1 110 0
	str	r3, [sp]
	.loc 1 112 0
	orrs	r3, r0, r1
	bne	.L82
.L52:
.LVL29:
.LBE38:
	.loc 1 134 0
	mov	r0, #256
.LVL30:
.L60:
	.loc 1 151 0
	add	r2, sp, #8
	mov	r1, sp
	bl	getStr4NumMISC
.LVL31:
	.loc 1 152 0
	add	r0, sp, #8
	bl	sprintUSART2
.LVL32:
	b	.L61
.L35:
	.loc 1 69 0
	ldrb	r3, [r3, #2]	@ zero_extendqisi2
	cmp	r3, #98
	beq	.L83
	.loc 1 72 0
	cmp	r3, #104
	beq	.L84
	.loc 1 75 0
	cmp	r3, #119
	.loc 1 76 0
	ldr	r3, [sp, #4]
	.loc 1 75 0
	beq	.L85
	.loc 1 79 0
	adds	r2, r3, #4
	.loc 1 81 0
	subs	r5, r5, #1
.LVL33:
	.loc 1 79 0
	ldr	r3, [r3]
	str	r2, [sp, #4]
	.loc 1 81 0
	uxth	r5, r5
	.loc 1 79 0
	str	r3, [sp]
.LVL34:
	.loc 1 80 0
	movs	r0, #32
.LVL35:
	b	.L54
.LVL36:
.L32:
	.loc 1 49 0
	ldrb	r3, [r3, #2]	@ zero_extendqisi2
	cmp	r3, #98
	beq	.L86
	.loc 1 52 0
	cmp	r3, #104
	beq	.L87
	.loc 1 55 0
	cmp	r3, #119
	.loc 1 56 0
	ldr	r3, [sp, #4]
	.loc 1 55 0
	beq	.L88
	.loc 1 59 0
	adds	r2, r3, #4
	.loc 1 61 0
	subs	r5, r5, #1
.LVL37:
	.loc 1 59 0
	ldr	r3, [r3]
	str	r2, [sp, #4]
	.loc 1 61 0
	uxth	r5, r5
	.loc 1 59 0
	str	r3, [sp]
.LVL38:
	.loc 1 60 0
	movs	r0, #4
.LVL39:
.L54:
	.loc 1 138 0
	adds	r5, r5, #1
.LVL40:
	uxth	r5, r5
.LVL41:
	.loc 1 140 0
	b	.L60
.LVL42:
.L34:
.LBB39:
	.loc 1 89 0
	ldr	r3, [sp, #4]
	adds	r1, r3, #4
	ldrb	r2, [r3]	@ zero_extendqisi2
.LVL43:
	str	r1, [sp, #4]
.L48:
.LBB40:
.LBB41:
	.loc 1 24 0
	ldrh	r3, [r4]
	lsls	r3, r3, #25
	bpl	.L48
	.loc 1 27 0
	uxth	r3, r2
	strh	r3, [r7, #4]	@ movhi
.LVL44:
.LBE41:
.LBE40:
	.loc 1 92 0
	b	.L61
.LVL45:
.L31:
.LBE39:
	.loc 1 143 0
	movs	r3, #0
	str	r3, [sp]
.LVL46:
	.loc 1 146 0
	b	.L61
.LVL47:
.L82:
.LBB42:
	.loc 1 113 0
	ldr	r3, [sp]
	orr	r3, r3, #1073741824
	str	r3, [sp]
	b	.L52
.LVL48:
.L83:
.LBE42:
	.loc 1 70 0
	ldr	r3, [sp, #4]
	adds	r2, r3, #4
	ldr	r3, [r3]
	str	r2, [sp, #4]
	str	r3, [sp]
.LVL49:
	.loc 1 71 0
	movs	r0, #8
	b	.L54
.LVL50:
.L86:
	.loc 1 50 0
	ldr	r3, [sp, #4]
	adds	r2, r3, #4
	ldr	r3, [r3]
	str	r2, [sp, #4]
	str	r3, [sp]
.LVL51:
	.loc 1 51 0
	movs	r0, #1
	b	.L54
.LVL52:
.L79:
	.loc 1 124 0
	ldr	r3, [sp, #4]
	adds	r2, r3, #4
	ldr	r3, [r3]
	str	r2, [sp, #4]
	str	r3, [sp]
.LVL53:
	.loc 1 125 0
	mov	r0, #512
	b	.L54
.LVL54:
.L87:
	.loc 1 53 0
	ldr	r3, [sp, #4]
	adds	r2, r3, #4
	ldr	r3, [r3]
	str	r2, [sp, #4]
	str	r3, [sp]
.LVL55:
	.loc 1 54 0
	movs	r0, #2
	b	.L54
.LVL56:
.L80:
	.loc 1 127 0
	ldr	r3, [sp, #4]
	adds	r2, r3, #4
	ldr	r3, [r3]
	str	r2, [sp, #4]
	str	r3, [sp]
.LVL57:
	.loc 1 128 0
	mov	r0, #1024
	b	.L54
.LVL58:
.L84:
	.loc 1 73 0
	ldr	r3, [sp, #4]
	adds	r2, r3, #4
	ldr	r3, [r3]
	str	r2, [sp, #4]
	str	r3, [sp]
.LVL59:
	.loc 1 74 0
	movs	r0, #16
	b	.L54
.LVL60:
.L88:
	.loc 1 56 0
	adds	r2, r3, #4
	ldr	r3, [r3]
	str	r2, [sp, #4]
	str	r3, [sp]
.LVL61:
	.loc 1 57 0
	movs	r0, #4
	b	.L54
.LVL62:
.L81:
	.loc 1 130 0
	adds	r2, r3, #4
	ldr	r3, [r3]
	str	r2, [sp, #4]
	str	r3, [sp]
.LVL63:
	.loc 1 131 0
	mov	r0, #2048
	b	.L54
.LVL64:
.L85:
	.loc 1 76 0
	adds	r2, r3, #4
	ldr	r3, [r3]
	str	r2, [sp, #4]
	str	r3, [sp]
.LVL65:
	.loc 1 77 0
	movs	r0, #32
	b	.L54
.L90:
	.align	2
.L89:
	.word	1073759232
	.cfi_endproc
.LFE112:
	.size	printUSARTMOJ, .-printUSARTMOJ
	.align	2
	.global	printUSART2
	.thumb
	.thumb_func
	.type	printUSART2, %function
printUSART2:
.LFB114:
	.loc 1 184 0
	.cfi_startproc
	@ args = 0, pretend = 0, frame = 1024
	@ frame_needed = 0, uses_anonymous_args = 0
.LVL66:
	push	{r4, r5, r6, lr}
	.cfi_def_cfa_offset 16
	.cfi_offset 4, -16
	.cfi_offset 5, -12
	.cfi_offset 6, -8
	.cfi_offset 14, -4
	sub	sp, sp, #1024
	.cfi_def_cfa_offset 1040
	.loc 1 189 0
	mov	r2, sp
	bl	getASCIIString
.LVL67:
.LBB43:
.LBB44:
	.loc 1 24 0
	ldr	r2, .L104
	add	r0, sp, #-1
	mov	r4, r2
	addw	r5, sp, #1023
.LBE44:
.LBE43:
.LBB46:
.LBB47:
	.loc 1 27 0
	movs	r6, #13
.LVL68:
.L92:
.LBE47:
.LBE46:
	.loc 1 191 0
	ldrb	r1, [r0, #1]!	@ zero_extendqisi2
.LVL69:
	cbz	r1, .L91
.L100:
.LBB49:
.LBB45:
	.loc 1 24 0
	ldrh	r3, [r2]
	lsls	r3, r3, #25
	bpl	.L100
	.loc 1 27 0
	uxth	r1, r1
	strh	r1, [r4, #4]	@ movhi
.LBE45:
.LBE49:
	.loc 1 193 0
	ldrb	r3, [r0]	@ zero_extendqisi2
	cmp	r3, #10
	beq	.L95
.L94:
.LVL70:
	.loc 1 198 0
	cmp	r0, r5
	bne	.L92
.LVL71:
.L91:
	.loc 1 201 0
	add	sp, sp, #1024
	.cfi_remember_state
	.cfi_def_cfa_offset 16
	@ sp needed
	pop	{r4, r5, r6, pc}
.L95:
	.cfi_restore_state
.LBB50:
.LBB48:
	.loc 1 24 0
	ldrh	r3, [r2]
	lsls	r3, r3, #25
	bpl	.L95
	.loc 1 27 0
	strh	r6, [r4, #4]	@ movhi
	b	.L94
.L105:
	.align	2
.L104:
	.word	1073759232
.LBE48:
.LBE50:
	.cfi_endproc
.LFE114:
	.size	printUSART2, .-printUSART2
	.align	2
	.global	getcharUSART2
	.thumb
	.thumb_func
	.type	getcharUSART2, %function
getcharUSART2:
.LFB115:
	.loc 1 203 0
	.cfi_startproc
	@ args = 0, pretend = 0, frame = 0
	@ frame_needed = 0, uses_anonymous_args = 0
	@ link register save eliminated.
	.loc 1 206 0
	ldr	r1, .L110
.L107:
	.loc 1 206 0 is_stmt 0 discriminator 1
	ldrh	r3, [r1]
	ldr	r2, .L110
	lsls	r3, r3, #26
	bpl	.L107
	.loc 1 209 0 is_stmt 1
	ldrh	r0, [r2, #4]
.LVL72:
	.loc 1 210 0
	ldrh	r3, [r2]
	bic	r3, r3, #32
	lsls	r3, r3, #16
	lsrs	r3, r3, #16
	.loc 1 213 0
	uxtb	r0, r0
	.loc 1 210 0
	strh	r3, [r2]	@ movhi
	.loc 1 213 0
	bx	lr
.L111:
	.align	2
.L110:
	.word	1073759232
	.cfi_endproc
.LFE115:
	.size	getcharUSART2, .-getcharUSART2
	.align	2
	.global	enableRxUSART2
	.thumb
	.thumb_func
	.type	enableRxUSART2, %function
enableRxUSART2:
.LFB116:
	.loc 1 215 0
	.cfi_startproc
	@ args = 0, pretend = 0, frame = 0
	@ frame_needed = 0, uses_anonymous_args = 0
	@ link register save eliminated.
	.loc 1 215 0
	ldr	r3, .L113
	movw	r2, #8196
	strh	r2, [r3, #12]	@ movhi
	bx	lr
.L114:
	.align	2
.L113:
	.word	1073759232
	.cfi_endproc
.LFE116:
	.size	enableRxUSART2, .-enableRxUSART2
	.align	2
	.global	getRxStateUSART2
	.thumb
	.thumb_func
	.type	getRxStateUSART2, %function
getRxStateUSART2:
.LFB117:
	.loc 1 217 0
	.cfi_startproc
	@ args = 0, pretend = 0, frame = 0
	@ frame_needed = 0, uses_anonymous_args = 0
	@ link register save eliminated.
.LVL73:
	.loc 1 219 0
	ldr	r3, .L116
	ldrh	r0, [r3]
.LVL74:
	eor	r0, r0, #32
.LVL75:
	.loc 1 223 0
	ubfx	r0, r0, #5, #1
	bx	lr
.L117:
	.align	2
.L116:
	.word	1073759232
	.cfi_endproc
.LFE117:
	.size	getRxStateUSART2, .-getRxStateUSART2
.Letext0:
	.file 2 "/home/emir/msut/STM32F407/gcc-arm-none-eabi/arm-none-eabi/include/machine/_default_types.h"
	.file 3 "/home/emir/msut/STM32F407/gcc-arm-none-eabi/arm-none-eabi/include/stdint.h"
	.file 4 "stm32f4xx.h"
	.file 5 "/home/emir/msut/STM32F407/gcc-arm-none-eabi/lib/gcc/arm-none-eabi/4.9.3/include/stdarg.h"
	.file 6 "misc.h"
	.file 7 "<built-in>"
	.file 8 "/home/emir/msut/STM32F407/Libraries/CMSIS/Include/core_cm4.h"