	.syntax unified
	.cpu cortex-m4
	.eabi_attribute 27, 3
	.eabi_attribute 28, 1
	.fpu fpv4-sp-d16
	.eabi_attribute 20, 1
	.eabi_attribute 21, 1
	.eabi_attribute 23, 3
	.eabi_attribute 24, 1
	.eabi_attribute 25, 1
	.eabi_attribute 26, 1
	.eabi_attribute 30, 2
	.eabi_attribute 34, 1
	.eabi_attribute 18, 4
	.thumb
	.file	"main.c"
	.text
.Ltext0:
	.cfi_sections	.debug_frame
	.align	2
	.global	init_TIM4
	.thumb
	.thumb_func
	.type	init_TIM4, %function
init_TIM4:
.LFB111:
	.file 1 "main.c"
	.loc 1 78 0
	.cfi_startproc
	@ args = 0, pretend = 0, frame = 0
	@ frame_needed = 0, uses_anonymous_args = 0
	@ link register save eliminated.
	.loc 1 82 0
	ldr	r0, .L3
	.loc 1 83 0
	ldr	r2, .L3+4
	.loc 1 82 0
	ldr	r1, [r0, #48]
	.loc 1 89 0
	ldr	r3, .L3+8
	.loc 1 82 0
	orr	r1, r1, #8
	.loc 1 78 0
	push	{r4}
	.cfi_def_cfa_offset 4
	.cfi_offset 4, -4
	.loc 1 82 0
	str	r1, [r0, #48]
	.loc 1 83 0
	ldr	r1, [r2]
	orr	r1, r1, #-1442840576
	str	r1, [r2]
	.loc 1 84 0
	ldr	r1, [r2, #4]
	str	r1, [r2, #4]
	.loc 1 85 0
	ldr	r1, [r2, #36]
	orr	r1, r1, #570425344
	orr	r1, r1, #2228224
	str	r1, [r2, #36]
	.loc 1 88 0
	ldr	r2, [r0, #64]
	.loc 1 90 0
	movs	r1, #104
	.loc 1 89 0
	movs	r4, #0
	.loc 1 88 0
	orr	r2, r2, #4
	str	r2, [r0, #64]
	.loc 1 89 0
	strh	r4, [r3, #40]	@ movhi
	.loc 1 90 0
	str	r1, [r3, #44]
	.loc 1 97 0
	ldrh	r2, [r3, #24]
	uxth	r2, r2
	orrs	r2, r2, r1
	strh	r2, [r3, #24]	@ movhi
	.loc 1 98 0
	ldrh	r2, [r3, #24]
	uxth	r2, r2
	orr	r2, r2, #26624
	strh	r2, [r3, #24]	@ movhi
	.loc 1 99 0
	ldrh	r2, [r3, #28]
	uxth	r2, r2
	orrs	r2, r2, r1
	strh	r2, [r3, #28]	@ movhi
	.loc 1 100 0
	ldrh	r2, [r3, #28]
	uxth	r2, r2
	orr	r2, r2, #26624
	strh	r2, [r3, #28]	@ movhi
	.loc 1 104 0
	ldrh	r2, [r3, #32]
	bic	r2, r2, #8704
	bic	r2, r2, #34
	lsls	r2, r2, #16
	lsrs	r2, r2, #16
	strh	r2, [r3, #32]	@ movhi
	.loc 1 106 0
	ldrh	r2, [r3]
	uxth	r2, r2
	orr	r2, r2, #132
	strh	r2, [r3]	@ movhi
	.loc 1 109 0
	ldrh	r2, [r3, #20]
	uxth	r2, r2
	orr	r2, r2, #1
	strh	r2, [r3, #20]	@ movhi
	.loc 1 111 0
	ldrh	r2, [r3, #32]
	uxth	r2, r2
	orr	r2, r2, #4352
	orr	r2, r2, #17
	strh	r2, [r3, #32]	@ movhi
	.loc 1 114 0
	ldrh	r2, [r3, #12]
	uxth	r2, r2
	orr	r2, r2, #18432
	strh	r2, [r3, #12]	@ movhi
	.loc 1 115 0
	ldrh	r2, [r3, #20]
	uxth	r2, r2
	orr	r2, r2, #8
	strh	r2, [r3, #20]	@ movhi
	.loc 1 118 0
	ldr	r4, [sp], #4
	.cfi_restore 4
	.cfi_def_cfa_offset 0
	bx	lr
.L4:
	.align	2
.L3:
	.word	1073887232
	.word	1073875968
	.word	1073743872
	.cfi_endproc
.LFE111:
	.size	init_TIM4, .-init_TIM4
	.align	2
	.global	init_TIM1
	.thumb
	.thumb_func
	.type	init_TIM1, %function
init_TIM1:
.LFB112:
	.loc 1 120 0
	.cfi_startproc
	@ args = 0, pretend = 0, frame = 0
	@ frame_needed = 0, uses_anonymous_args = 0
	@ link register save eliminated.
	.loc 1 124 0
	ldr	r2, .L7
	.loc 1 125 0
	ldr	r0, .L7+4
	.loc 1 130 0
	ldr	r1, .L7+8
	.loc 1 135 0
	ldr	r3, .L7+12
	.loc 1 120 0
	push	{r4, r5, r6}
	.cfi_def_cfa_offset 12
	.cfi_offset 4, -12
	.cfi_offset 5, -8
	.cfi_offset 6, -4
	.loc 1 124 0
	ldr	r4, [r2, #48]
	.loc 1 139 0
	ldr	r5, .L7+16
	.loc 1 124 0
	orr	r4, r4, #1
	str	r4, [r2, #48]
	.loc 1 125 0
	ldr	r4, [r0]
	orr	r4, r4, #131072
	str	r4, [r0]
	.loc 1 126 0
	ldr	r4, [r0, #4]
	str	r4, [r0, #4]
	.loc 1 127 0
	ldr	r4, [r0, #36]
	orr	r4, r4, #1
	str	r4, [r0, #36]
	.loc 1 129 0
	ldr	r0, [r2, #48]
	orr	r0, r0, #16
	str	r0, [r2, #48]
	.loc 1 130 0
	ldr	r0, [r1]
	orr	r0, r0, #524288
	str	r0, [r1]
	.loc 1 131 0
	ldr	r0, [r1, #4]
	str	r0, [r1, #4]
	.loc 1 132 0
	ldr	r0, [r1, #36]
	orr	r0, r0, #16
	str	r0, [r1, #36]
	.loc 1 134 0
	ldr	r1, [r2, #68]
	.loc 1 135 0
	movs	r6, #1
	.loc 1 136 0
	movs	r4, #104
	.loc 1 134 0
	orrs	r1, r1, r6
	.loc 1 138 0
	movs	r0, #0
	.loc 1 134 0
	str	r1, [r2, #68]
	.loc 1 135 0
	strh	r6, [r3, #40]	@ movhi
	.loc 1 136 0
	str	r4, [r3, #44]
	.loc 1 138 0
	str	r0, [r3, #52]
	.loc 1 139 0
	str	r0, [r5, #56]
	.loc 1 143 0
	ldrh	r2, [r3, #24]
	uxth	r2, r2
	orrs	r2, r2, r4
	strh	r2, [r3, #24]	@ movhi
	.loc 1 144 0
	ldrh	r2, [r3, #24]
	uxth	r2, r2
	orr	r2, r2, #26624
	strh	r2, [r3, #24]	@ movhi
	.loc 1 145 0
	ldrh	r2, [r3, #28]
	uxth	r2, r2
	orrs	r2, r2, r4
	strh	r2, [r3, #28]	@ movhi
	.loc 1 146 0
	ldrh	r2, [r3, #28]
	uxth	r2, r2
	orr	r2, r2, #26624
	strh	r2, [r3, #28]	@ movhi
	.loc 1 150 0
	ldrh	r2, [r3, #32]
	bic	r2, r2, #8704
	bic	r2, r2, #34
	lsls	r2, r2, #16
	lsrs	r2, r2, #16
	strh	r2, [r3, #32]	@ movhi
	.loc 1 154 0
	ldrh	r2, [r3]
	uxth	r2, r2
	orr	r2, r2, #132
	strh	r2, [r3]	@ movhi
	.loc 1 156 0
	ldrh	r2, [r3, #4]
	uxth	r2, r2
	orr	r2, r2, #8
	strh	r2, [r3, #4]	@ movhi
	.loc 1 159 0
	ldrh	r2, [r3, #20]
	uxth	r2, r2
	orrs	r2, r2, r6
	strh	r2, [r3, #20]	@ movhi
	.loc 1 161 0
	ldrh	r2, [r3, #32]
	uxth	r2, r2
	orr	r2, r2, #4352
	orr	r2, r2, #17
	strh	r2, [r3, #32]	@ movhi
	.loc 1 166 0
	ldrh	r2, [r3, #12]
	uxth	r2, r2
	orr	r2, r2, #256
	strh	r2, [r3, #12]	@ movhi
	.loc 1 167 0
	ldrh	r2, [r3, #12]
	uxth	r2, r2
	orr	r2, r2, #16896
	strh	r2, [r3, #12]	@ movhi
	.loc 1 168 0
	ldrh	r2, [r3, #20]
	uxth	r2, r2
	orr	r2, r2, #2
	strh	r2, [r3, #20]	@ movhi
	.loc 1 172 0
	pop	{r4, r5, r6}
	.cfi_restore 6
	.cfi_restore 5
	.cfi_restore 4
	.cfi_def_cfa_offset 0
	bx	lr
.L8:
	.align	2
.L7:
	.word	1073887232
	.word	1073872896
	.word	1073876992
	.word	1073807360
	.word	1073743872
	.cfi_endproc
.LFE112:
	.size	init_TIM1, .-init_TIM1
	.align	2
	.global	init_DMA1
	.thumb
	.thumb_func
	.type	init_DMA1, %function
init_DMA1:
.LFB113:
	.loc 1 174 0
	.cfi_startproc
	@ args = 0, pretend = 0, frame = 0
	@ frame_needed = 0, uses_anonymous_args = 0
	@ link register save eliminated.
	.loc 1 176 0
	ldr	r3, .L14
	.loc 1 178 0
	ldr	r1, .L14+4
	.loc 1 176 0
	mov	r2, #2097152
	str	r2, [r3, #48]
	.loc 1 178 0
	ldr	r3, [r1]
	bic	r3, r3, #1
	str	r3, [r1]
.L10:
	.loc 1 179 0 discriminator 1
	ldr	r2, [r1]
	ldr	r3, .L14+4
	lsls	r2, r2, #31
	bmi	.L10
	.loc 1 182 0
	ldr	r0, [r3]
	ldr	r2, .L14+8
	.loc 1 193 0
	ldr	r1, .L14+12
	.loc 1 174 0
	push	{r4, r5}
	.cfi_def_cfa_offset 8
	.cfi_offset 4, -8
	.cfi_offset 5, -4
	.loc 1 182 0
	ands	r2, r2, r0
	.loc 1 187 0
	ldr	r5, .L14+16
	.loc 1 189 0
	ldr	r4, .L14+20
	.loc 1 182 0
	str	r2, [r3]
	.loc 1 191 0
	movw	r0, #4658
	.loc 1 187 0
	str	r5, [r3, #8]
	.loc 1 189 0
	str	r4, [r3, #12]
	.loc 1 191 0
	str	r0, [r3, #4]
	.loc 1 193 0
	ldrh	r2, [r1, #12]
	uxth	r2, r2
	orr	r2, r2, #256
	strh	r2, [r1, #12]	@ movhi
	.loc 1 196 0
	ldr	r2, [r3]
	orr	r2, r2, #67108864
	str	r2, [r3]
	.loc 1 197 0
	ldr	r2, [r3]
	orr	r2, r2, #131072
	str	r2, [r3]
	.loc 1 199 0
	ldr	r2, [r3]
	orr	r2, r2, #64
	str	r2, [r3]
	.loc 1 200 0
	ldr	r2, [r3]
	orr	r2, r2, #1024
	str	r2, [r3]
	.loc 1 201 0
	ldr	r2, [r3]
	orr	r2, r2, #16
	str	r2, [r3]
	.loc 1 203 0
	ldr	r2, [r3]
	orr	r2, r2, #8192
	str	r2, [r3]
	.loc 1 204 0
	ldr	r2, [r3]
	orr	r2, r2, #2048
	str	r2, [r3]
	.loc 1 209 0
	pop	{r4, r5}
	.cfi_restore 5
	.cfi_restore 4
	.cfi_def_cfa_offset 0
	bx	lr
.L15:
	.align	2
.L14:
	.word	1073887232
	.word	1073897656
	.word	-267386880
	.word	1073743872
	.word	1073743932
	.word	colorBuff
	.cfi_endproc
.LFE113:
	.size	init_DMA1, .-init_DMA1
	.align	2
	.global	init_DMA2
	.thumb
	.thumb_func
	.type	init_DMA2, %function
init_DMA2:
.LFB114:
	.loc 1 211 0
	.cfi_startproc
	@ args = 0, pretend = 0, frame = 0
	@ frame_needed = 0, uses_anonymous_args = 0
	@ link register save eliminated.
	.loc 1 213 0
	ldr	r3, .L20
	.loc 1 215 0
	ldr	r1, .L20+4
	.loc 1 213 0
	mov	r2, #4194304
	str	r2, [r3, #48]
	.loc 1 215 0
	ldr	r3, [r1]
	bic	r3, r3, #1
	str	r3, [r1]
.L17:
	.loc 1 216 0 discriminator 1
	ldr	r3, [r1]
	ldr	r2, .L20+4
	ands	r3, r3, #1
	bne	.L17
	.loc 1 211 0
	push	{r4, r5, r6}
	.cfi_def_cfa_offset 12
	.cfi_offset 4, -12
	.cfi_offset 5, -8
	.cfi_offset 6, -4
	.loc 1 219 0
	ldr	r1, .L20+8
	ldr	r4, [r2]
	.loc 1 224 0
	ldr	r6, .L20+12
	.loc 1 226 0
	ldr	r5, .L20+16
.LBB8:
.LBB9:
	.file 2 "/home/emir/msut/STM32F407/Libraries/CMSIS/Include/core_cm4.h"
	.loc 2 1162 0
	ldr	r0, .L20+20
.LBE9:
.LBE8:
	.loc 1 219 0
	ands	r1, r1, r4
	.loc 1 228 0
	movw	r4, #4658
	.loc 1 219 0
	str	r1, [r2]
	.loc 1 224 0
	str	r6, [r2, #8]
	.loc 1 226 0
	str	r5, [r2, #12]
	.loc 1 228 0
	str	r4, [r2, #4]
	.loc 1 232 0
	ldr	r1, [r2]
	orr	r1, r1, #201326592
	str	r1, [r2]
	.loc 1 233 0
	ldr	r1, [r2]
	orr	r1, r1, #131072
	str	r1, [r2]
	.loc 1 235 0
	ldr	r1, [r2]
	orr	r1, r1, #64
	str	r1, [r2]
	.loc 1 236 0
	ldr	r1, [r2]
	orr	r1, r1, #1024
	str	r1, [r2]
	.loc 1 237 0
	ldr	r1, [r2]
	orr	r1, r1, #16
	str	r1, [r2]
	.loc 1 239 0
	ldr	r1, [r2]
	orr	r1, r1, #8192
.LBB11:
.LBB12:
	.loc 2 1075 0
	mov	r4, #33554432
.LBE12:
.LBE11:
	.loc 1 239 0
	str	r1, [r2]
.LVL0:
.LBB14:
.LBB10:
	.loc 2 1162 0
	strb	r3, [r0, #825]
.LVL1:
.LBE10:
.LBE14:
.LBB15:
.LBB13:
	.loc 2 1075 0
	str	r4, [r0, #4]
.LBE13:
.LBE15:
	.loc 1 245 0
	pop	{r4, r5, r6}
	.cfi_restore 6
	.cfi_restore 5
	.cfi_restore 4
	.cfi_def_cfa_offset 0
	bx	lr
.L21:
	.align	2
.L20:
	.word	1073887232
	.word	1073898536
	.word	-267386880
	.word	1073807412
	.word	colorBuff
	.word	-536813312
	.cfi_endproc
.LFE114:
	.size	init_DMA2, .-init_DMA2
	.align	2
	.global	DMA2_Stream1_IRQHandler
	.thumb
	.thumb_func
	.type	DMA2_Stream1_IRQHandler, %function
DMA2_Stream1_IRQHandler:
.LFB115:
	.loc 1 247 0
	.cfi_startproc
	@ args = 0, pretend = 0, frame = 0
	@ frame_needed = 0, uses_anonymous_args = 0
	push	{r4, lr}
	.cfi_def_cfa_offset 8
	.cfi_offset 4, -8
	.cfi_offset 14, -4
	.loc 1 248 0
	ldr	r0, .L24
	.loc 1 252 0
	ldr	r4, .L24+4
	.loc 1 248 0
	bl	printUSART2
.LVL2:
	.loc 1 249 0
	ldr	r0, .L24+8
	.loc 1 250 0
	ldr	r1, .L24+12
	.loc 1 249 0
	ldr	r3, [r0, #8]
	.loc 1 251 0
	ldr	r2, .L24+16
	.loc 1 249 0
	orr	r3, r3, #2048
	str	r3, [r0, #8]
	.loc 1 250 0
	ldrh	r3, [r1]
	bic	r3, r3, #1
	lsls	r3, r3, #16
	lsrs	r3, r3, #16
	strh	r3, [r1]	@ movhi
	.loc 1 251 0
	ldr	r3, [r2]
	.loc 1 252 0
	movs	r1, #1
	.loc 1 251 0
	bic	r3, r3, #1
	str	r3, [r2]
	.loc 1 252 0
	str	r1, [r4]
	pop	{r4, pc}
.L25:
	.align	2
.L24:
	.word	.LC0
	.word	.LANCHOR0
	.word	1073898496
	.word	1073807360
	.word	1073898536
	.cfi_endproc
.LFE115:
	.size	DMA2_Stream1_IRQHandler, .-DMA2_Stream1_IRQHandler
	.align	2
	.global	send
	.thumb
	.thumb_func
	.type	send, %function
send:
.LFB116:
	.loc 1 263 0
	.cfi_startproc
	@ args = 0, pretend = 0, frame = 0
	@ frame_needed = 0, uses_anonymous_args = 0
	@ link register save eliminated.
.LVL3:
	.loc 1 268 0
	ldr	r3, .L32
	.loc 1 263 0
	push	{r4, r5, r6, r7}
	.cfi_def_cfa_offset 16
	.cfi_offset 4, -16
	.cfi_offset 5, -12
	.cfi_offset 6, -8
	.cfi_offset 7, -4
	orr	r1, r0, r1, lsl #8
.LVL4:
	ldr	r4, .L32+4
	.loc 1 268 0
	ldrh	r7, [r3, #2]
	.loc 1 270 0
	ldrh	r6, [r3]
	.loc 1 264 0
	orr	r2, r1, r2, lsl #16
.LVL5:
	.loc 1 266 0
	movs	r3, #23
	.loc 1 267 0
	movs	r1, #1
.LVL6:
.L29:
	lsl	r5, r1, r3
	tst	r5, r2
	.loc 1 266 0
	add	r3, r3, #-1
.LVL7:
	.loc 1 268 0
	ite	ne
	strhne	r7, [r4]	@ movhi
	.loc 1 270 0
	strheq	r6, [r4]	@ movhi
	.loc 1 266 0
	adds	r0, r3, #1
	sub	r4, r4, #2
	bne	.L29
	.loc 1 274 0
	pop	{r4, r5, r6, r7}
	.cfi_restore 7
	.cfi_restore 6
	.cfi_restore 5
	.cfi_restore 4
	.cfi_def_cfa_offset 0
	bx	lr
.L33:
	.align	2
.L32:
	.word	.LANCHOR1
	.word	colorBuff+46
	.cfi_endproc
.LFE116:
	.size	send, .-send
	.align	2
	.global	set_LED
	.thumb
	.thumb_func
	.type	set_LED, %function
set_LED:
.LFB117:
	.loc 1 276 0
	.cfi_startproc
	@ args = 0, pretend = 0, frame = 0
	@ frame_needed = 0, uses_anonymous_args = 0
	@ link register save eliminated.
.LVL8:
	push	{r4, r5}
	.cfi_def_cfa_offset 8
	.cfi_offset 4, -8
	.cfi_offset 5, -4
	.loc 1 277 0
	ldr	r5, .L36
	.loc 1 278 0
	add	r4, r5, r0, lsl #2
	.loc 1 277 0
	strb	r0, [r5, r0, lsl #2]
	.loc 1 278 0
	strb	r3, [r4, #1]
	.loc 1 279 0
	strb	r1, [r4, #2]
	.loc 1 280 0
	strb	r2, [r4, #3]
	.loc 1 281 0
	pop	{r4, r5}
	.cfi_restore 5
	.cfi_restore 4
	.cfi_def_cfa_offset 0
	bx	lr
.L37:
	.align	2
.L36:
	.word	LED_Data
	.cfi_endproc
.LFE117:
	.size	set_LED, .-set_LED
	.align	2
	.global	WS2812_send
	.thumb
	.thumb_func
	.type	WS2812_send, %function
WS2812_send:
.LFB118:
	.loc 1 283 0
	.cfi_startproc
	@ args = 0, pretend = 0, frame = 0
	@ frame_needed = 0, uses_anonymous_args = 0
.LVL9:
	push	{r3, r4, r5, r6, r7, lr}
	.cfi_def_cfa_offset 24
	.cfi_offset 3, -24
	.cfi_offset 4, -20
	.cfi_offset 5, -16
	.cfi_offset 6, -12
	.cfi_offset 7, -8
	.cfi_offset 14, -4
.LBB16:
	.loc 1 294 0
	ldr	r3, .L54
	ldr	r7, .L54+4
	ldrh	r6, [r3, #2]
	.loc 1 296 0
	ldrh	r5, [r3]
	ldr	lr, .L54+44
	add	ip, r7, #768
	.loc 1 293 0
	movs	r4, #1
.LVL10:
.L42:
	.loc 1 289 0
	ldrb	r2, [r7, #2]	@ zero_extendqisi2
	ldrb	r0, [r7, #1]	@ zero_extendqisi2
	ldrb	r3, [r7, #3]	@ zero_extendqisi2
	lsls	r2, r2, #8
	orr	r0, r2, r0, lsl #16
	orrs	r0, r0, r3
.LVL11:
	mov	r2, lr
	.loc 1 292 0
	movs	r3, #0
.LVL12:
.L41:
	.loc 1 293 0
	lsl	r1, r4, r3
	tst	r1, r0
	.loc 1 292 0
	add	r3, r3, #1
.LVL13:
	.loc 1 294 0
	ite	ne
	strhne	r6, [r2]	@ movhi
	.loc 1 296 0
	strheq	r5, [r2]	@ movhi
.LVL14:
	.loc 1 292 0
	cmp	r3, #24
	add	r2, r2, #2
	bne	.L41
.LVL15:
	adds	r7, r7, #4
.LVL16:
.LBE16:
	.loc 1 288 0 discriminator 2
	cmp	r7, ip
	add	lr, lr, #48
	bne	.L42
	ldr	r3, .L54+8
.LVL17:
	.loc 1 303 0
	movs	r1, #0
	add	r2, r3, #100
.LVL18:
.L43:
	.loc 1 303 0 is_stmt 0 discriminator 3
	strh	r1, [r3, #2]!	@ movhi
	.loc 1 302 0 is_stmt 1 discriminator 3
	cmp	r3, r2
	bne	.L43
	.loc 1 307 0
	ldr	r1, .L54+12
	.loc 1 308 0
	ldr	r2, .L54+16
	.loc 1 307 0
	ldrh	r3, [r1]
	.loc 1 316 0
	ldr	r4, .L54+20
	.loc 1 315 0
	ldr	r0, .L54+24
.LVL19:
	.loc 1 307 0
	uxth	r3, r3
	orr	r3, r3, #1
	strh	r3, [r1]	@ movhi
.LVL20:
	.loc 1 308 0
	ldr	r3, [r2]
	orr	r3, r3, #1
	str	r3, [r2]
	.loc 1 315 0
	ldr	r1, [r2, #4]
	bl	printUSART2
.LVL21:
	.loc 1 316 0
	ldr	r3, [r4]
	cbnz	r3, .L45
	.loc 1 317 0
	ldr	r5, .L54+28
.L44:
	ldr	r1, [r5, #20]
	ldr	r0, .L54+32
	bl	printUSART2
.LVL22:
	.loc 1 316 0
	ldr	r3, [r4]
	cmp	r3, #0
	beq	.L44
.L45:
	.loc 1 322 0
	ldr	r5, .L54+16
	.loc 1 323 0
	ldr	r1, .L54+36
	.loc 1 322 0
	ldr	r3, [r5]
	.loc 1 324 0
	ldr	r2, .L54+12
	.loc 1 325 0
	ldr	r0, .L54+40
	.loc 1 322 0
	bic	r3, r3, #1
	str	r3, [r5]
	.loc 1 323 0
	ldr	r3, [r1, #8]
	orr	r3, r3, #2048
	str	r3, [r1, #8]
	.loc 1 324 0
	ldrh	r3, [r2]
	bic	r3, r3, #1
	lsls	r3, r3, #16
	lsrs	r3, r3, #16
	strh	r3, [r2]	@ movhi
	.loc 1 325 0
	bl	printUSART2
.LVL23:
	.loc 1 327 0
	ldr	r1, [r5, #4]
	ldr	r0, .L54+24
	bl	printUSART2
.LVL24:
	.loc 1 328 0
	movs	r3, #0
	str	r3, [r4]
	pop	{r3, r4, r5, r6, r7, pc}
.L55:
	.align	2
.L54:
	.word	.LANCHOR1
	.word	LED_Data
	.word	colorBuff+9214
	.word	1073807360
	.word	1073898536
	.word	.LANCHOR0
	.word	.LC1
	.word	1073872896
	.word	.LC3
	.word	1073898496
	.word	.LC2
	.word	colorBuff
	.cfi_endproc
.LFE118:
	.size	WS2812_send, .-WS2812_send
	.section	.text.startup,"ax",%progbits
	.align	2
	.global	main
	.thumb
	.thumb_func
	.type	main, %function
main:
.LFB110:
	.loc 1 30 0
	.cfi_startproc
	@ args = 0, pretend = 0, frame = 0
	@ frame_needed = 0, uses_anonymous_args = 0
.LVL25:
	push	{r4, lr}
	.cfi_def_cfa_offset 8
	.cfi_offset 4, -8
	.cfi_offset 14, -4
	.loc 1 34 0
	mov	r0, #364
	bl	initUSART2
.LVL26:
	.loc 1 35 0
	ldr	r0, .L61
	bl	printUSART2
.LVL27:
	.loc 1 36 0
	ldr	r0, .L61+4
	bl	printUSART2
.LVL28:
	.loc 1 37 0
	ldr	r0, .L61
	bl	printUSART2
.LVL29:
	.loc 1 39 0
	bl	init_TIM1
.LVL30:
	.loc 1 40 0
	bl	init_DMA2
.LVL31:
	ldr	r0, .L61+8
	.loc 1 47 0
	movs	r3, #0
	mov	r2, r0
.LBB17:
.LBB18:
	.loc 1 278 0
	mov	r1, r3
	.loc 1 280 0
	movs	r4, #50
.LVL32:
.L57:
	.loc 1 277 0
	strb	r3, [r0, r3, lsl #2]
.LBE18:
.LBE17:
	.loc 1 47 0
	adds	r3, r3, #1
.LVL33:
	cmp	r3, #16
.LBB20:
.LBB19:
	.loc 1 278 0
	strb	r1, [r2, #1]
	.loc 1 279 0
	strb	r1, [r2, #2]
	.loc 1 280 0
	strb	r4, [r2, #3]
	add	r2, r2, #4
.LBE19:
.LBE20:
	.loc 1 47 0
	bne	.L57
	.loc 1 51 0
	bl	WS2812_send
.LVL34:
.L58:
	.loc 1 75 0 discriminator 1
	b	.L58
.L62:
	.align	2
.L61:
	.word	.LC4
	.word	.LC5
	.word	LED_Data
	.cfi_endproc
.LFE110:
	.size	main, .-main
	.text
	.align	2
	.global	reset_LED
	.thumb
	.thumb_func
	.type	reset_LED, %function
reset_LED:
.LFB119:
	.loc 1 331 0
	.cfi_startproc
	@ args = 0, pretend = 0, frame = 0
	@ frame_needed = 0, uses_anonymous_args = 0
	@ link register save eliminated.
.LVL35:
	ldr	r0, .L66
	.loc 1 333 0
	movs	r3, #0
	mov	r2, r0
	.loc 1 335 0
	mov	r1, r3
.LVL36:
.L64:
	.loc 1 334 0 discriminator 3
	strb	r3, [r0, r3, lsl #2]
	.loc 1 333 0 discriminator 3
	adds	r3, r3, #1
.LVL37:
	cmp	r3, #192
	.loc 1 335 0 discriminator 3
	strb	r1, [r2, #1]
	.loc 1 336 0 discriminator 3
	strb	r1, [r2, #2]
	.loc 1 337 0 discriminator 3
	strb	r1, [r2, #3]
	add	r2, r2, #4
	.loc 1 333 0 discriminator 3
	bne	.L64
	.loc 1 339 0
	bx	lr
.L67:
	.align	2
.L66:
	.word	LED_Data
	.cfi_endproc
.LFE119:
	.size	reset_LED, .-reset_LED
	.comm	colorBuff,9316,4
	.global	datasentflag
	.comm	LED_Data,768,4
	.global	pwm
	.data
	.align	2
	.set	.LANCHOR1,. + 0
	.type	pwm, %object
	.size	pwm, 4
pwm:
	.short	34
	.short	67
	.section	.rodata.str1.4,"aMS",%progbits,1
	.align	2
.LC0:
	.ascii	"inasjebemajke\012\000"
	.space	1
.LC1:
	.ascii	"NDTR->[%d]\012\000"
.LC2:
	.ascii	"izaso\012\000"
	.space	1
.LC3:
	.ascii	"GPIOA->ODR -> [%x]\012\000"
.LC4:
	.ascii	"\012wwwwwwwwwwwwwwwwwwwwwwwwwwwwwwwwwwwwwwwwwwwwwww"
	.ascii	"wwwwww\012\000"
.LC5:
	.ascii	"w Starting test app...\000"
	.bss
	.align	2
	.set	.LANCHOR0,. + 0
	.type	datasentflag, %object
	.size	datasentflag, 4
datasentflag:
	.space	4
	.text
.Letext0:
	.file 3 "stm32f4xx.h"
	.file 4 "/home/emir/msut/STM32F407/gcc-arm-none-eabi/arm-none-eabi/include/machine/_default_types.h"
	.file 5 "/home/emir/msut/STM32F407/gcc-arm-none-eabi/arm-none-eabi/include/stdint.h"
	.file 6 "usart.h"